; Function Attrs: mustprogress uwtable
define internal fastcc void @_ZN4Luau7CodeGen3A64L9emitAbortERNS1_18AssemblyBuilderA64ERNS0_5LabelE(ptr noundef nonnull align 8 dereferenceable(176) %0, ptr noundef nonnull align 4 dereferenceable(8) %1) unnamed_addr #0 {
  %3 = alloca %"struct.Luau::CodeGen::Label", align 4
  call void @llvm.lifetime.start.p0(i64 8, ptr nonnull %3) #14
  store i32 0, ptr %3, align 4, !tbaa !68
  %4 = getelementptr inbounds nuw i8, ptr %3, i64 4
  store i32 -1, ptr %4, align 4, !tbaa !70
  call void @_ZN4Luau7CodeGen3A6418AssemblyBuilderA641bERNS0_5LabelE(ptr noundef nonnull align 8 dereferenceable(176) %0, ptr noundef nonnull align 4 dereferenceable(8) %3)
  call void @_ZN4Luau7CodeGen3A6418AssemblyBuilderA648setLabelERNS0_5LabelE(ptr noundef nonnull align 8 dereferenceable(176) %0, ptr noundef nonnull align 4 dereferenceable(8) %1)
  call void @_ZN4Luau7CodeGen3A6418AssemblyBuilderA643udfEv(ptr noundef nonnull align 8 dereferenceable(176) %0)
  call void @_ZN4Luau7CodeGen3A6418AssemblyBuilderA648setLabelERNS0_5LabelE(ptr noundef nonnull align 8 dereferenceable(176) %0, ptr noundef nonnull align 4 dereferenceable(8) %3)
  call void @llvm.lifetime.end.p0(i64 8, ptr nonnull %3) #14
  ret void
}